Certificate:
    Data:
        Version: 1 (0x0)
        Serial Number: 4098 (0x1002)
    Signature Algorithm: sha256WithRSAEncryption
        Issuer: CN=Interm.
        Validity
            Not Before: Oct 11 08:02:57 2019 GMT
            Not After : Oct 10 08:02:57 2020 GMT
        Subject: CN=2.example.com
        Subject Public Key Info:
            Public Key Algorithm: rsaEncryption
                Public-Key: (2048 bit)
                Modulus:
                    00:db:a3:83:72:91:5d:9a:f5:50:d0:aa:27:bb:e4:
                    b4:ea:94:0d:1e:ef:56:80:f8:f4:58:11:2d:e4:46:
                    50:f4:65:0e:33:e8:c0:ca:0b:69:7e:3c:1b:ed:e7:
                    ff:dd:f9:f0:c8:e0:91:1a:15:15:e7:d2:fe:0c:69:
                    13:fa:18:71:ab:e0:fb:11:8a:8e:3c:d1:a6:73:81:
                    c2:7f:8f:7e:ae:65:27:b6:39:93:c4:eb:45:b6:3e:
                    d3:24:f9:55:0d:32:31:1e:38:a0:fc:26:c0:1b:73:
                    62:e3:c4:94:81:d1:8a:60:57:4d:6f:69:fe:7c:9f:
                    f0:c1:7f:06:9b:56:20:01:2a:f2:b7:4d:d1:ca:aa:
                    ff:f2:e8:bf:f3:a6:e6:e4:a3:f5:79:b7:1d:aa:8a:
                    a7:7c:e5:02:e6:7a:b2:92:20:c8:82:4f:a0:f0:48:
                    99:e2:dc:2e:96:18:fa:3f:db:d2:83:28:a5:7d:dd:
                    f1:85:3b:fd:e0:de:70:59:a5:da:60:ec:86:30:04:
                    51:d0:7c:23:b5:d2:33:b6:3b:15:22:4b:b5:d7:c4:
                    d2:97:a1:97:f5:59:16:5f:fd:42:b4:fc:34:cf:7f:
                    9b:1d:94:f6:f8:a4:c3:c8:6f:98:9a:8e:3f:16:64:
                    ec:75:40:b9:6e:1a:40:9a:f2:3c:6b:82:0a:1e:bf:
                    53:1b
                Exponent: 65537 (0x10001)
    Signature Algorithm: sha256WithRSAEncryption
         90:75:57:e8:89:82:22:5e:8b:d4:27:dd:0f:5b:75:9b:91:4e:
         c3:bd:d5:1b:b3:b2:89:07:d8:83:b2:76:a5:0a:3f:d4:6c:60:
         86:9a:0c:46:50:a5:29:5e:8a:41:98:c7:52:92:af:57:8f:c1:
         69:a2:04:68:09:c5:4b:fa:42:df:3d:b1:b8:98:9a:60:c7:e9:
         bc:e6:bf:c6:54:cd:c5:1d:7a:9a:cd:07:fc:0d:f2:25:c0:6d:
         ff:73:62:4a:e4:06:c6:eb:cd:58:a2:87:fe:3c:57:af:22:d4:
         d5:fd:5e:31:f7:4b:50:33:c6:65:8a:49:72:2a:9d:03:1a:ec:
         f6:4c:28:e0:de:72:f1:b8:05:1f:7c:1d:75:25:35:db:a0:20:
         c1:f7:45:df:78:2b:5d:03:10:5f:0b:d3:ae:aa:38:f3:b8:b0:
         95:14:ce:de:40:62:06:6f:6d:3b:4e:79:18:f6:fa:a7:4d:d2:
         4b:88:be:c2:d6:fb:76:41:24:21:88:8e:d6:dc:f8:be:1e:4c:
         c5:f3:d6:04:5c:73:2c:61:ac:2b:42:d9:36:23:f8:73:04:24:
         7e:27:de:7e:71:a9:82:9f:dc:70:88:88:be:41:f4:55:fc:f4:
         4d:e3:7d:22:c9:ee:06:9b:b1:09:fd:ff:dc:d3:d5:fd:ad:cd:
         06:9d:d8:d6
-----BEGIN CERTIFICATE-----
MIICnzCCAYcCAhACMA0GCSqGSIb3DQEBCwUAMBIxEDAOBgNVBAMMB0ludGVybS4w
HhcNMTkxMDExMDgwMjU3WhcNMjAxMDEwMDgwMjU3WjAYMRYwFAYDVQQDDA0yLmV4
YW1wbGUuY29tMIIBIjANBgkqhkiG9w0BAQEFAAOCAQ8AMIIBCgKCAQEA26ODcpFd
mvVQ0Konu+S06pQNHu9WgPj0WBEt5EZQ9GUOM+jAygtpfjwb7ef/3fnwyOCRGhUV
59L+DGkT+hhxq+D7EYqOPNGmc4HCf49+rmUntjmTxOtFtj7TJPlVDTIxHjig/CbA
G3Ni48SUgdGKYFdNb2n+fJ/wwX8Gm1YgASryt03Ryqr/8ui/86bm5KP1ebcdqoqn
fOUC5nqykiDIgk+g8EiZ4twulhj6P9vSgyilfd3xhTv94N5wWaXaYOyGMARR0Hwj
tdIztjsVIku118TSl6GX9VkWX/1CtPw0z3+bHZT2+KTDyG+Ymo4/FmTsdUC5bhpA
mvI8a4IKHr9TGwIDAQABMA0GCSqGSIb3DQEBCwUAA4IBAQCQdVfoiYIiXovUJ90P
W3WbkU7DvdUbs7KJB9iDsnalCj/UbGCGmgxGUKUpXopBmMdSkq9Xj8FpogRoCcVL
+kLfPbG4mJpgx+m85r/GVM3FHXqazQf8DfIlwG3/c2JK5AbG681Yoof+PFevItTV
/V4x90tQM8ZliklyKp0DGuz2TCjg3nLxuAUffB11JTXboCDB90XfeCtdAxBfC9Ou
qjjzuLCVFM7eQGIGb207TnkY9vqnTdJLiL7C1vt2QSQhiI7W3Pi+HkzF89YEXHMs
YawrQtk2I/hzBCR+J95+camCn9xwiIi+QfRV/PRN430iye4Gm7EJ/f/c09X9rc0G
ndjW
-----END CERTIFICATE-----
